target datalayout = "e-m:e-p270:32:32-p271:32:32-p272:64:64-i64:64-i128:128-f80:128-n8:16:32:64-S128"
target triple = "x86_64-pc-linux-gnu"

%"class.cv::Matx.0" = type { [16 x float] }
%"class.cv::Affine3" = type { %"class.cv::Matx.0" }
%"struct.cv::kinfu::VolumeParams" = type { i32, %"class.cv::Vec.10", i32, %"class.cv::Affine3", float, float, i32, float, float }
%"class.cv::Vec.10" = type { %"class.cv::Matx.11" }
%"class.cv::Matx.11" = type { [3 x i32] }

; Function Attrs: mustprogress uwtable
define hidden void @_ZN2cv5kinfu17HashTSDFVolumeCPUC2ERKNS0_12VolumeParamsEb(ptr noundef nonnull align 8 dereferenceable(404) %0, ptr noundef nonnull align 4 dereferenceable(104) %1, i1 noundef zeroext %2) unnamed_addr #6 align 2 {
  %4 = alloca ptr, align 8
  %5 = alloca ptr, align 8
  %6 = alloca i8, align 1
  store ptr %0, ptr %4, align 8, !tbaa !50
  store ptr %1, ptr %5, align 8, !tbaa !58
  %7 = zext i1 %2 to i8
  store i8 %7, ptr %6, align 1, !tbaa !14
  %8 = load ptr, ptr %4, align 8
  %9 = load ptr, ptr %5, align 8, !tbaa !58
  %10 = getelementptr inbounds nuw %"struct.cv::kinfu::VolumeParams", ptr %9, i32 0, i32 4
  %11 = load float, ptr %10, align 4, !tbaa !60
  %12 = load ptr, ptr %5, align 8, !tbaa !58
  %13 = getelementptr inbounds nuw %"struct.cv::kinfu::VolumeParams", ptr %12, i32 0, i32 3
  %14 = getelementptr inbounds nuw %"class.cv::Affine3", ptr %13, i32 0, i32 0
  %15 = load ptr, ptr %5, align 8, !tbaa !58
  %16 = getelementptr inbounds nuw %"struct.cv::kinfu::VolumeParams", ptr %15, i32 0, i32 8
  %17 = load float, ptr %16, align 4, !tbaa !65
  %18 = load ptr, ptr %5, align 8, !tbaa !58
  %19 = getelementptr inbounds nuw %"struct.cv::kinfu::VolumeParams", ptr %18, i32 0, i32 5
  %20 = load float, ptr %19, align 4, !tbaa !66
  %21 = load ptr, ptr %5, align 8, !tbaa !58
  %22 = getelementptr inbounds nuw %"struct.cv::kinfu::VolumeParams", ptr %21, i32 0, i32 6
  %23 = load i32, ptr %22, align 4, !tbaa !67
  %24 = load ptr, ptr %5, align 8, !tbaa !58
  %25 = getelementptr inbounds nuw %"struct.cv::kinfu::VolumeParams", ptr %24, i32 0, i32 7
  %26 = load float, ptr %25, align 4, !tbaa !68
  %27 = load ptr, ptr %5, align 8, !tbaa !58
  %28 = getelementptr inbounds nuw %"struct.cv::kinfu::VolumeParams", ptr %27, i32 0, i32 2
  %29 = load i32, ptr %28, align 4, !tbaa !69
  %30 = load i8, ptr %6, align 1, !tbaa !14, !range !31, !noundef !32
  %31 = trunc i8 %30 to i1
  call void @_ZN2cv5kinfu17HashTSDFVolumeCPUC2EfRKNS_4MatxIfLi4ELi4EEEffifib(ptr noundef nonnull align 8 dereferenceable(404) %8, float noundef %11, ptr noundef nonnull align 4 dereferenceable(64) %14, float noundef %17, float noundef %20, i32 noundef %23, float noundef %26, i32 noundef %29, i1 noundef zeroext %31)
  ret void
}