; Function Attrs: mustprogress uwtable
define hidden void @_ZN2cv5kinfu17HashTSDFVolumeCPUC2ERKNS0_12VolumeParamsEb(ptr noundef nonnull align 8 dereferenceable(404) initializes((0, 100), (104, 109), (112, 128)) %0, ptr noundef nonnull readonly align 4 captures(none) dereferenceable(104) %1, i1 noundef zeroext %2) unnamed_addr #4 align 2 {
  %4 = getelementptr inbounds nuw i8, ptr %1, i64 84
  %5 = load float, ptr %4, align 4, !tbaa !48
  %6 = getelementptr inbounds nuw i8, ptr %1, i64 20
  %7 = getelementptr inbounds nuw i8, ptr %1, i64 100
  %8 = load float, ptr %7, align 4, !tbaa !53
  %9 = getelementptr inbounds nuw i8, ptr %1, i64 88
  %10 = load float, ptr %9, align 4, !tbaa !54
  %11 = getelementptr inbounds nuw i8, ptr %1, i64 92
  %12 = load i32, ptr %11, align 4, !tbaa !55
  %13 = getelementptr inbounds nuw i8, ptr %1, i64 96
  %14 = load float, ptr %13, align 4, !tbaa !56
  %15 = getelementptr inbounds nuw i8, ptr %1, i64 16
  %16 = load i32, ptr %15, align 4, !tbaa !57
  tail call void @_ZN2cv5kinfu17HashTSDFVolumeCPUC2EfRKNS_4MatxIfLi4ELi4EEEffifib(ptr noundef nonnull align 8 dereferenceable(404) %0, float noundef %5, ptr noundef nonnull align 4 dereferenceable(64) %6, float noundef %8, float noundef %10, i32 noundef %12, float noundef %14, i32 noundef %16, i1 noundef zeroext %2)
  ret void
}